Certificate:
    Data:
        Version: 3 (0x2)
        Serial Number: 4100 (0x1004)
    Signature Algorithm: sha1WithRSAEncryption
        Issuer: C=ID, ST=DKI Jakarta, L=Jakarta Pusat, O=Badan Otoritas Sertifikat Digital, OU=Unit Penerbitan Sertifikat, CN=sertifikat.id/emailAddress=cert@sertifikat.id
        Validity
            Not Before: May 15 08:00:00 2016 GMT
            Not After : Jun 15 09:00:00 2016 GMT
        Subject: C=ID, ST=Bogor, L=Bogor, O=PDFDIGI SIGnn, OU=PDFDIGI SIGnn, CN=test.id/emailAddress=info@test.id
        Subject Public Key Info:
            Public Key Algorithm: rsaEncryption
                Public-Key: (2048 bit)
                Modulus:
                    00:db:13:5a:89:b3:51:c2:39:82:0f:c0:30:4f:24:
                    b9:09:b7:33:75:87:34:52:27:4b:74:50:a4:89:44:
                    e7:07:56:58:41:5f:9e:3c:f0:07:d6:7e:75:b1:67:
                    32:01:3d:63:e3:30:4d:11:79:04:53:e4:e4:04:d1:
                    f5:02:27:55:5e:a2:c7:3c:ca:6d:80:06:a9:b4:89:
                    64:82:22:27:c1:ea:3b:e6:da:e8:94:c7:a4:d6:85:
                    25:1e:74:ab:ad:ec:e9:1b:29:63:5d:d7:d5:0d:92:
                    ad:54:65:05:01:94:49:c4:73:98:82:53:d9:e5:67:
                    e7:0e:f0:ef:9c:77:77:66:fd:91:ba:6b:51:49:a1:
                    59:cc:9e:ae:7d:69:8a:c5:ef:71:39:08:99:a6:9e:
                    f4:ce:d4:4a:20:86:0f:d8:98:13:32:7e:52:70:07:
                    19:0b:10:47:97:77:d3:4e:bc:bb:1e:a2:c7:85:bf:
                    9e:d7:d8:f9:97:61:ff:2f:18:d9:fc:a7:de:bf:ee:
                    54:66:c2:1d:46:73:2a:d5:46:df:f8:45:37:61:7c:
                    d6:09:9c:f7:45:b2:4f:e0:73:b4:4a:63:42:88:75:
                    1b:bf:68:dc:9f:b3:ca:8e:e5:aa:86:ed:24:55:6f:
                    ab:5b:8f:ab:f2:b5:d5:0b:9c:40:ea:aa:50:c0:57:
                    c0:19
                Exponent: 65537 (0x10001)
        X509v3 extensions:
            X509v3 Basic Constraints: 
                CA:FALSE
            Netscape Comment: 
                BlankOn Certificate
            X509v3 Subject Key Identifier: 
                38:2A:56:75:9F:A6:2D:04:54:7C:BC:CA:7A:AB:D4:D9:82:0C:A7:A0
            X509v3 Authority Key Identifier: 
                keyid:91:A8:8F:9D:C4:94:FB:AC:BD:2E:DD:81:76:8C:75:F0:3B:44:0E:FE

            X509v3 CRL Distribution Points: 

                Full Name:
                  URI:https://kodekreatif.github.io/pdfdigisign/crl.pem

    Signature Algorithm: sha1WithRSAEncryption
         a1:92:ca:0f:75:8f:8f:45:b8:df:eb:a2:c2:f7:57:92:82:39:
         da:92:cd:cf:83:b1:75:68:ff:27:e3:a7:6f:76:eb:ba:8c:9f:
         62:95:90:fd:c8:b3:2d:83:75:eb:50:ed:6f:d6:e6:a6:62:d6:
         bf:6c:a4:5e:e2:22:da:4a:23:57:7b:9d:e4:fc:2b:dc:58:41:
         b3:7b:f8:65:b8:34:b8:c5:22:1e:22:eb:79:af:cf:d1:41:5f:
         d0:bf:b3:71:e6:6a:de:51:28:b7:0d:7d:d8:ff:f8:a1:13:03:
         51:de:c0:2f:df:44:36:2b:2f:4c:bf:d1:95:7f:62:d3:e5:61:
         04:b2:0c:94:5d:03:1c:85:bf:22:f3:ea:b0:1e:e4:06:12:19:
         a0:b7:2f:07:5d:6a:50:27:64:e2:a2:40:ef:e7:5b:dc:dc:cd:
         d8:55:dc:ed:04:3a:86:d0:20:6b:1c:c1:02:04:30:a0:61:36:
         64:43:15:31:50:c2:01:cc:ed:6e:2e:b4:d7:c7:19:ad:05:b6:
         f5:4f:63:1c:38:27:99:a4:9a:0e:23:3f:71:4b:5c:80:03:7f:
         26:81:d6:fc:4d:1a:61:34:46:64:0c:6d:ae:34:7d:54:a3:6f:
         4c:9f:da:49:da:00:c6:73:76:2d:a3:ad:cd:ac:7b:f0:95:6d:
         58:56:99:ec
-----BEGIN CERTIFICATE-----
MIIEiDCCA3CgAwIBAgICEAQwDQYJKoZIhvcNAQEFBQAwgccxCzAJBgNVBAYTAklE
MRQwEgYDVQQIDAtES0kgSmFrYXJ0YTEWMBQGA1UEBwwNSmFrYXJ0YSBQdXNhdDEq
MCgGA1UECgwhQmFkYW4gT3Rvcml0YXMgU2VydGlmaWthdCBEaWdpdGFsMSMwIQYD
VQQLDBpVbml0IFBlbmVyYml0YW4gU2VydGlmaWthdDEWMBQGA1UEAwwNc2VydGlm
aWthdC5pZDEhMB8GCSqGSIb3DQEJARYSY2VydEBzZXJ0aWZpa2F0LmlkMB4XDTE2
MDUxNTA4MDAwMFoXDTE2MDYxNTA5MDAwMFowgYwxCzAJBgNVBAYTAklEMQ4wDAYD
VQQIDAVCb2dvcjEOMAwGA1UEBwwFQm9nb3IxFjAUBgNVBAoMDVBERkRJR0kgU0lH
bm4xFjAUBgNVBAsMDVBERkRJR0kgU0lHbm4xEDAOBgNVBAMMB3Rlc3QuaWQxGzAZ
BgkqhkiG9w0BCQEWDGluZm9AdGVzdC5pZDCCASIwDQYJKoZIhvcNAQEBBQADggEP
ADCCAQoCggEBANsTWomzUcI5gg/AME8kuQm3M3WHNFInS3RQpIlE5wdWWEFfnjzw
B9Z+dbFnMgE9Y+MwTRF5BFPk5ATR9QInVV6ixzzKbYAGqbSJZIIiJ8HqO+ba6JTH
pNaFJR50q63s6RspY13X1Q2SrVRlBQGUScRzmIJT2eVn5w7w75x3d2b9kbprUUmh
Wcyern1pisXvcTkImaae9M7USiCGD9iYEzJ+UnAHGQsQR5d30068ux6ix4W/ntfY
+Zdh/y8Y2fyn3r/uVGbCHUZzKtVG3/hFN2F81gmc90WyT+BztEpjQoh1G79o3J+z
yo7lqobtJFVvq1uPq/K11QucQOqqUMBXwBkCAwEAAaOBtjCBszAJBgNVHRMEAjAA
MCIGCWCGSAGG+EIBDQQVFhNCbGFua09uIENlcnRpZmljYXRlMB0GA1UdDgQWBBQ4
KlZ1n6YtBFR8vMp6q9TZggynoDAfBgNVHSMEGDAWgBSRqI+dxJT7rL0u3YF2jHXw
O0QO/jBCBgNVHR8EOzA5MDegNaAzhjFodHRwczovL2tvZGVrcmVhdGlmLmdpdGh1
Yi5pby9wZGZkaWdpc2lnbi9jcmwucGVtMA0GCSqGSIb3DQEBBQUAA4IBAQChksoP
dY+PRbjf66LC91eSgjnaks3Pg7F1aP8n46dvduu6jJ9ilZD9yLMtg3XrUO1v1uam
Yta/bKRe4iLaSiNXe53k/CvcWEGze/hluDS4xSIeIut5r8/RQV/Qv7Nx5mreUSi3
DX3Y//ihEwNR3sAv30Q2Ky9Mv9GVf2LT5WEEsgyUXQMchb8i8+qwHuQGEhmgty8H
XWpQJ2TiokDv51vc3M3YVdztBDqG0CBrHMECBDCgYTZkQxUxUMIBzO1uLrTXxxmt
Bbb1T2McOCeZpJoOIz9xS1yAA38mgdb8TRphNEZkDG2uNH1Uo29Mn9pJ2gDGc3Yt
o63NrHvwlW1YVpns
-----END CERTIFICATE-----
