Certificate:
    Data:
        Version: 3 (0x2)
        Serial Number: 4101 (0x1005)
    Signature Algorithm: sha1WithRSAEncryption
        Issuer: C=ID, ST=DKI Jakarta, L=Jakarta Pusat, O=Badan Otoritas Sertifikat Digital, OU=Unit Penerbitan Sertifikat, CN=sertifikat.id/emailAddress=cert@sertifikat.id
        Validity
            Not Before: May 15 08:00:00 2015 GMT
            Not After : Jun 15 09:00:00 2016 GMT
        Subject: C=ID, ST=Bogor, L=Bogor, O=PDF DIGI SIGN, OU=PDF SIGI SIGN, CN=test.id/emailAddress=info@test.id
        Subject Public Key Info:
            Public Key Algorithm: rsaEncryption
                Public-Key: (2048 bit)
                Modulus:
                    00:dd:44:12:f5:31:b1:ed:f2:09:24:a1:cc:35:06:
                    e4:3d:b3:09:05:df:d9:be:8f:dd:4a:4b:04:d3:ba:
                    6a:82:cd:b9:2f:22:9b:33:b6:67:7c:66:d5:04:99:
                    09:b9:e7:db:38:a1:19:32:5b:b9:38:f7:16:d9:d9:
                    e1:83:18:a1:cc:c2:87:66:9f:cd:c2:35:72:3c:2d:
                    cb:55:26:31:5b:19:31:6a:ee:7c:45:bc:72:59:6c:
                    02:cb:99:3e:8d:46:de:9f:05:7b:e5:12:19:00:91:
                    72:0a:93:85:84:57:9e:53:d8:70:2c:5d:16:f5:3a:
                    62:cf:02:94:3a:d8:32:c6:63:05:09:34:1e:4c:25:
                    4e:8b:83:20:9a:95:23:09:70:a8:ff:0f:3d:bc:77:
                    ee:76:c7:51:d1:e6:6f:20:c0:85:77:dc:4b:f1:cb:
                    6d:f4:70:52:50:47:c3:5e:79:be:07:47:c8:09:1a:
                    86:aa:c6:31:54:26:44:32:fb:19:36:b5:27:b7:ae:
                    45:26:34:7b:f7:05:7f:88:1f:33:59:83:f6:f2:81:
                    c4:dc:75:49:7d:55:25:23:03:37:36:59:98:d7:34:
                    b2:2b:07:8c:19:ea:6a:82:dd:0b:59:2c:85:0b:9a:
                    a4:5a:ad:94:64:cc:ca:1b:fd:af:e3:cc:7d:65:61:
                    30:dd
                Exponent: 65537 (0x10001)
        X509v3 extensions:
            X509v3 Basic Constraints: 
                CA:FALSE
            Netscape Comment: 
                BlankOn Certificate
            X509v3 Subject Key Identifier: 
                2C:DE:A2:C7:5A:8D:7D:D3:D4:B6:D0:15:0B:98:B8:00:9B:C9:0B:60
            X509v3 Authority Key Identifier: 
                keyid:91:A8:8F:9D:C4:94:FB:AC:BD:2E:DD:81:76:8C:75:F0:3B:44:0E:FE

            X509v3 CRL Distribution Points: 

                Full Name:
                  URI:https://kodekreatif.github.io/pdfdigisign/crl.pem

    Signature Algorithm: sha1WithRSAEncryption
         22:f3:83:4f:aa:fb:c1:b6:c6:06:79:63:39:72:90:9c:27:cb:
         aa:da:52:b6:43:1d:88:0b:d4:fc:78:bd:ef:2e:86:d9:f4:d7:
         b5:da:49:53:b2:6b:8f:99:a9:a9:72:c1:b3:43:94:8f:8e:97:
         4d:d3:11:11:9b:ca:bf:09:2a:37:0a:8f:c2:24:b8:f0:b1:41:
         bb:8d:81:0b:3f:78:f3:fa:4e:85:4c:bf:ef:7a:d8:ea:e5:3c:
         14:bd:72:6d:1b:57:54:9e:47:b8:81:9f:da:7b:70:8e:e7:7c:
         cc:e9:65:0e:b8:d1:52:e9:6a:df:d5:72:81:d5:c4:2e:ad:55:
         59:be:d7:cc:7e:18:8b:90:06:bd:5f:92:9e:28:12:3f:ef:aa:
         a9:3c:4a:ab:a1:ec:b2:ab:9c:95:8b:e5:6a:99:dc:b9:9e:93:
         f2:79:7b:be:fd:25:32:52:04:9c:7b:69:3a:c7:cb:0f:f7:69:
         7e:e6:0e:60:e4:32:87:1e:a3:6f:54:c0:4b:0c:2b:2d:50:d8:
         0d:65:47:2b:d3:f3:26:5d:0e:b3:9b:6b:e3:e6:2e:c5:14:fc:
         eb:26:55:21:bc:14:31:f9:d5:da:5e:f4:a2:09:8b:b9:11:f0:
         3f:97:e8:0b:4c:d9:ac:98:33:55:26:50:7e:10:a0:9b:d8:a0:
         fd:cd:24:57
-----BEGIN CERTIFICATE-----
MIIEiDCCA3CgAwIBAgICEAUwDQYJKoZIhvcNAQEFBQAwgccxCzAJBgNVBAYTAklE
MRQwEgYDVQQIDAtES0kgSmFrYXJ0YTEWMBQGA1UEBwwNSmFrYXJ0YSBQdXNhdDEq
MCgGA1UECgwhQmFkYW4gT3Rvcml0YXMgU2VydGlmaWthdCBEaWdpdGFsMSMwIQYD
VQQLDBpVbml0IFBlbmVyYml0YW4gU2VydGlmaWthdDEWMBQGA1UEAwwNc2VydGlm
aWthdC5pZDEhMB8GCSqGSIb3DQEJARYSY2VydEBzZXJ0aWZpa2F0LmlkMB4XDTE1
MDUxNTA4MDAwMFoXDTE2MDYxNTA5MDAwMFowgYwxCzAJBgNVBAYTAklEMQ4wDAYD
VQQIDAVCb2dvcjEOMAwGA1UEBwwFQm9nb3IxFjAUBgNVBAoMDVBERiBESUdJIFNJ
R04xFjAUBgNVBAsMDVBERiBTSUdJIFNJR04xEDAOBgNVBAMMB3Rlc3QuaWQxGzAZ
BgkqhkiG9w0BCQEWDGluZm9AdGVzdC5pZDCCASIwDQYJKoZIhvcNAQEBBQADggEP
ADCCAQoCggEBAN1EEvUxse3yCSShzDUG5D2zCQXf2b6P3UpLBNO6aoLNuS8imzO2
Z3xm1QSZCbnn2zihGTJbuTj3FtnZ4YMYoczCh2afzcI1cjwty1UmMVsZMWrufEW8
cllsAsuZPo1G3p8Fe+USGQCRcgqThYRXnlPYcCxdFvU6Ys8ClDrYMsZjBQk0Hkwl
TouDIJqVIwlwqP8PPbx37nbHUdHmbyDAhXfcS/HLbfRwUlBHw155vgdHyAkahqrG
MVQmRDL7GTa1J7euRSY0e/cFf4gfM1mD9vKBxNx1SX1VJSMDNzZZmNc0sisHjBnq
aoLdC1kshQuapFqtlGTMyhv9r+PMfWVhMN0CAwEAAaOBtjCBszAJBgNVHRMEAjAA
MCIGCWCGSAGG+EIBDQQVFhNCbGFua09uIENlcnRpZmljYXRlMB0GA1UdDgQWBBQs
3qLHWo1909S20BULmLgAm8kLYDAfBgNVHSMEGDAWgBSRqI+dxJT7rL0u3YF2jHXw
O0QO/jBCBgNVHR8EOzA5MDegNaAzhjFodHRwczovL2tvZGVrcmVhdGlmLmdpdGh1
Yi5pby9wZGZkaWdpc2lnbi9jcmwucGVtMA0GCSqGSIb3DQEBBQUAA4IBAQAi84NP
qvvBtsYGeWM5cpCcJ8uq2lK2Qx2IC9T8eL3vLobZ9Ne12klTsmuPmampcsGzQ5SP
jpdN0xERm8q/CSo3Co/CJLjwsUG7jYELP3jz+k6FTL/vetjq5TwUvXJtG1dUnke4
gZ/ae3CO53zM6WUOuNFS6Wrf1XKB1cQurVVZvtfMfhiLkAa9X5KeKBI/76qpPEqr
oeyyq5yVi+Vqmdy5npPyeXu+/SUyUgSce2k6x8sP92l+5g5g5DKHHqNvVMBLDCst
UNgNZUcr0/MmXQ6zm2vj5i7FFPzrJlUhvBQx+dXaXvSiCYu5EfA/l+gLTNmsmDNV
JlB+EKCb2KD9zSRX
-----END CERTIFICATE-----
