Certificate:
    Data:
        Version: 3 (0x2)
        Serial Number: 4099 (0x1003)
    Signature Algorithm: sha1WithRSAEncryption
        Issuer: C=ID, ST=DKI Jakarta, L=Jakarta Pusat, O=Badan Otoritas Sertifikat Digital, OU=Unit Penerbitan Sertifikat, CN=sertifikat.id/emailAddress=cert@sertifikat.id
        Validity
            Not Before: May 15 08:00:00 2015 GMT
            Not After : Jun 15 09:00:00 2015 GMT
        Subject: C=ID, ST=Bogor, L=Bogor, O=PDFDigi Sign, OU=PDFDigi Sign, CN=test.id/emailAddress=info@test.id
        Subject Public Key Info:
            Public Key Algorithm: rsaEncryption
                Public-Key: (2048 bit)
                Modulus:
                    00:df:eb:c5:22:3f:5a:c0:8b:5d:2a:a9:a0:2c:83:
                    08:e9:1d:b7:d4:b7:72:65:3d:45:73:e3:99:d0:79:
                    23:4b:58:03:56:28:9b:69:f1:7e:fa:99:03:d9:7c:
                    c3:4b:58:69:56:4a:03:9e:60:10:66:5b:d7:50:b8:
                    16:c9:79:65:04:4b:ec:44:97:f8:25:32:09:b3:12:
                    87:c4:3c:5a:f6:a3:9d:7a:07:22:be:5b:84:1f:3f:
                    b0:cc:eb:cf:89:cc:9f:cc:ae:62:ce:04:4a:8e:4e:
                    9d:f3:0d:aa:a0:74:53:e7:5a:36:16:04:fa:4a:36:
                    44:82:b0:94:12:4b:8b:d4:e9:fb:bc:ba:47:5c:f4:
                    81:e0:c9:f1:89:c6:fc:6a:1c:8e:e2:8c:6e:c6:eb:
                    7d:3c:61:d8:9a:12:7c:e1:e5:09:71:4e:9a:73:76:
                    b2:a8:59:e2:47:fe:e2:d4:55:0e:8a:5e:80:80:76:
                    b0:79:97:1f:d8:46:74:86:7c:cb:5f:13:53:48:5f:
                    06:f4:dd:f7:93:42:9e:5e:5f:26:8b:54:21:60:37:
                    2c:20:af:9d:03:ad:5e:27:c4:a4:67:69:14:33:fa:
                    64:55:1c:12:ec:36:99:63:f7:2a:aa:33:ad:cf:9d:
                    a7:75:de:7f:b6:88:cd:c5:6a:15:6b:5b:64:a6:e4:
                    c5:c3
                Exponent: 65537 (0x10001)
        X509v3 extensions:
            X509v3 Basic Constraints: 
                CA:FALSE
            Netscape Comment: 
                BlankOn Certificate
            X509v3 Subject Key Identifier: 
                45:E3:9F:60:93:0B:55:CB:2D:FA:E7:3A:C0:DC:99:C2:BA:9F:86:80
            X509v3 Authority Key Identifier: 
                keyid:91:A8:8F:9D:C4:94:FB:AC:BD:2E:DD:81:76:8C:75:F0:3B:44:0E:FE

            X509v3 CRL Distribution Points: 

                Full Name:
                  URI:https://kodekreatif.github.io/pdfdigisign/crl.pem

    Signature Algorithm: sha1WithRSAEncryption
         9f:e1:6e:1b:c9:3a:57:e2:66:ed:55:95:c2:9f:54:bc:8b:74:
         f1:10:75:56:1a:0f:4f:0f:6a:a1:dc:42:29:bc:3d:eb:34:08:
         7a:4d:2e:e5:1e:d4:8f:97:6d:ed:9a:08:57:15:2f:63:95:2b:
         3c:65:51:48:6b:5e:16:0c:c8:5b:a9:d4:56:f9:5b:3f:0d:ac:
         92:21:78:e2:7c:f1:87:a1:a4:ce:04:4a:22:b7:fa:76:f9:c9:
         e8:2a:7c:54:f1:ca:4a:f8:61:96:01:98:c4:ee:d5:c6:35:f7:
         8d:89:50:0e:d6:37:7d:0e:2e:15:19:d0:17:10:ac:d5:c6:69:
         fc:5d:36:1b:c8:5d:ad:99:2f:fd:75:4a:2a:2f:c2:e9:9c:91:
         3f:1a:e7:b1:c3:59:d6:60:17:60:70:52:58:f1:eb:c0:dd:43:
         bb:00:18:2e:3d:cc:db:bd:3c:25:f9:75:6c:1f:7e:3a:a5:04:
         09:57:73:ce:ee:ee:8d:e9:f7:dd:7b:48:bf:b5:18:be:d2:fc:
         0f:24:c6:01:e8:85:4f:bc:5a:49:de:f3:2c:96:b7:1a:c0:c7:
         6e:36:e9:7e:e0:21:4a:3c:7f:ba:4d:9d:f5:56:95:c4:5f:7f:
         7d:87:15:5b:5c:2b:d0:ca:c6:54:a5:52:78:70:b2:ac:cb:77:
         af:21:cb:e2
-----BEGIN CERTIFICATE-----
MIIEhjCCA26gAwIBAgICEAMwDQYJKoZIhvcNAQEFBQAwgccxCzAJBgNVBAYTAklE
MRQwEgYDVQQIDAtES0kgSmFrYXJ0YTEWMBQGA1UEBwwNSmFrYXJ0YSBQdXNhdDEq
MCgGA1UECgwhQmFkYW4gT3Rvcml0YXMgU2VydGlmaWthdCBEaWdpdGFsMSMwIQYD
VQQLDBpVbml0IFBlbmVyYml0YW4gU2VydGlmaWthdDEWMBQGA1UEAwwNc2VydGlm
aWthdC5pZDEhMB8GCSqGSIb3DQEJARYSY2VydEBzZXJ0aWZpa2F0LmlkMB4XDTE1
MDUxNTA4MDAwMFoXDTE1MDYxNTA5MDAwMFowgYoxCzAJBgNVBAYTAklEMQ4wDAYD
VQQIDAVCb2dvcjEOMAwGA1UEBwwFQm9nb3IxFTATBgNVBAoMDFBERkRpZ2kgU2ln
bjEVMBMGA1UECwwMUERGRGlnaSBTaWduMRAwDgYDVQQDDAd0ZXN0LmlkMRswGQYJ
KoZIhvcNAQkBFgxpbmZvQHRlc3QuaWQwggEiMA0GCSqGSIb3DQEBAQUAA4IBDwAw
ggEKAoIBAQDf68UiP1rAi10qqaAsgwjpHbfUt3JlPUVz45nQeSNLWANWKJtp8X76
mQPZfMNLWGlWSgOeYBBmW9dQuBbJeWUES+xEl/glMgmzEofEPFr2o516ByK+W4Qf
P7DM68+JzJ/MrmLOBEqOTp3zDaqgdFPnWjYWBPpKNkSCsJQSS4vU6fu8ukdc9IHg
yfGJxvxqHI7ijG7G6308YdiaEnzh5QlxTppzdrKoWeJH/uLUVQ6KXoCAdrB5lx/Y
RnSGfMtfE1NIXwb03feTQp5eXyaLVCFgNywgr50DrV4nxKRnaRQz+mRVHBLsNplj
9yqqM63Pnad13n+2iM3FahVrW2Sm5MXDAgMBAAGjgbYwgbMwCQYDVR0TBAIwADAi
BglghkgBhvhCAQ0EFRYTQmxhbmtPbiBDZXJ0aWZpY2F0ZTAdBgNVHQ4EFgQUReOf
YJMLVcst+uc6wNyZwrqfhoAwHwYDVR0jBBgwFoAUkaiPncSU+6y9Lt2Bdox18DtE
Dv4wQgYDVR0fBDswOTA3oDWgM4YxaHR0cHM6Ly9rb2Rla3JlYXRpZi5naXRodWIu
aW8vcGRmZGlnaXNpZ24vY3JsLnBlbTANBgkqhkiG9w0BAQUFAAOCAQEAn+FuG8k6
V+Jm7VWVwp9UvIt08RB1VhoPTw9qodxCKbw96zQIek0u5R7Uj5dt7ZoIVxUvY5Ur
PGVRSGteFgzIW6nUVvlbPw2skiF44nzxh6GkzgRKIrf6dvnJ6Cp8VPHKSvhhlgGY
xO7VxjX3jYlQDtY3fQ4uFRnQFxCs1cZp/F02G8hdrZkv/XVKKi/C6ZyRPxrnscNZ
1mAXYHBSWPHrwN1DuwAYLj3M2708Jfl1bB9+OqUECVdzzu7ujen33XtIv7UYvtL8
DyTGAeiFT7xaSd7zLJa3GsDHbjbpfuAhSjx/uk2d9VaVxF9/fYcVW1wr0MrGVKVS
eHCyrMt3ryHL4g==
-----END CERTIFICATE-----
